target datalayout = "e-m:e-p270:32:32-p271:32:32-p272:64:64-i64:64-i128:128-f80:128-n8:16:32:64-S128"
target triple = "x86_64-pc-linux-gnu"

%"struct.faiss::(anonymous namespace)::IVFFlatScanner" = type { %"struct.faiss::InvertedListScanner", i64, ptr }
%"struct.faiss::InvertedListScanner" = type { ptr, i64, i8, i8, ptr, i64 }

; Function Attrs: inlinehint mustprogress nounwind uwtable
define linkonce_odr noundef i64 @_ZN5faiss8lo_buildEmm(i64 noundef %0, i64 noundef %1) #1 comdat {
  %3 = alloca i64, align 8
  %4 = alloca i64, align 8
  store i64 %0, ptr %3, align 8, !tbaa !9
  store i64 %1, ptr %4, align 8, !tbaa !9
  %5 = load i64, ptr %3, align 8, !tbaa !9
  %6 = shl i64 %5, 32
  %7 = load i64, ptr %4, align 8, !tbaa !9
  %8 = or i64 %6, %7
  ret i64 %8
}

; Function Attrs: inlinehint mustprogress nounwind uwtable
define linkonce_odr noundef zeroext i1 @_ZN5faiss4CMinIflE3cmpEff(float noundef %0, float noundef %1) #1 comdat align 2 {
  %3 = alloca float, align 4
  %4 = alloca float, align 4
  store float %0, ptr %3, align 4, !tbaa !65
  store float %1, ptr %4, align 4, !tbaa !65
  %5 = load float, ptr %3, align 4, !tbaa !65
  %6 = load float, ptr %4, align 4, !tbaa !65
  %7 = fcmp olt float %5, %6
  ret i1 %7
}

; Function Attrs: mustprogress uwtable
define internal void @_ZNK5faiss12_GLOBAL__N_114IVFFlatScannerILNS_10MetricTypeE0ENS_4CMinIflEELb1EE16scan_codes_rangeEmPKhPKlfRNS_16RangeQueryResultE(ptr noundef nonnull align 8 dereferenceable(56) %0, i64 noundef %1, ptr noundef %2, ptr noundef %3, float noundef %4, ptr noundef nonnull align 8 dereferenceable(24) %5) unnamed_addr #3 align 2 {
  %7 = alloca ptr, align 8
  %8 = alloca i64, align 8
  %9 = alloca ptr, align 8
  %10 = alloca ptr, align 8
  %11 = alloca float, align 4
  %12 = alloca ptr, align 8
  %13 = alloca ptr, align 8
  %14 = alloca i64, align 8
  %15 = alloca i32, align 4
  %16 = alloca ptr, align 8
  %17 = alloca float, align 4
  %18 = alloca i64, align 8
  store ptr %0, ptr %7, align 8, !tbaa !114
  store i64 %1, ptr %8, align 8, !tbaa !9
  store ptr %2, ptr %9, align 8, !tbaa !11
  store ptr %3, ptr %10, align 8, !tbaa !43
  store float %4, ptr %11, align 4, !tbaa !65
  store ptr %5, ptr %12, align 8, !tbaa !132
  %19 = load ptr, ptr %7, align 8
  call void @llvm.lifetime.start.p0(i64 8, ptr %13) #12
  %20 = load ptr, ptr %9, align 8, !tbaa !11
  store ptr %20, ptr %13, align 8, !tbaa !13
  call void @llvm.lifetime.start.p0(i64 8, ptr %14) #12
  store i64 0, ptr %14, align 8, !tbaa !9
  br label %21

21:                                               ; preds = %77, %6
  %22 = load i64, ptr %14, align 8, !tbaa !9
  %23 = load i64, ptr %8, align 8, !tbaa !9
  %24 = icmp ult i64 %22, %23
  br i1 %24, label %26, label %25

25:                                               ; preds = %21
  store i32 2, ptr %15, align 4
  call void @llvm.lifetime.end.p0(i64 8, ptr %14) #12
  br label %80

26:                                               ; preds = %21
  call void @llvm.lifetime.start.p0(i64 8, ptr %16) #12
  %27 = load ptr, ptr %13, align 8, !tbaa !13
  %28 = getelementptr inbounds nuw %"struct.faiss::(anonymous namespace)::IVFFlatScanner", ptr %19, i32 0, i32 1
  %29 = load i64, ptr %28, align 8, !tbaa !116
  %30 = load i64, ptr %14, align 8, !tbaa !9
  %31 = mul i64 %29, %30
  %32 = getelementptr inbounds nuw float, ptr %27, i64 %31
  store ptr %32, ptr %16, align 8, !tbaa !13
  %33 = getelementptr inbounds nuw %"struct.faiss::InvertedListScanner", ptr %19, i32 0, i32 4
  %34 = load ptr, ptr %33, align 8, !tbaa !128
  %35 = load ptr, ptr %10, align 8, !tbaa !43
  %36 = load i64, ptr %14, align 8, !tbaa !9
  %37 = getelementptr inbounds nuw i64, ptr %35, i64 %36
  %38 = load i64, ptr %37, align 8, !tbaa !9
  %39 = load ptr, ptr %34, align 8, !tbaa !57
  %40 = getelementptr inbounds ptr, ptr %39, i64 0
  %41 = load ptr, ptr %40, align 8
  %42 = call noundef zeroext i1 %41(ptr noundef nonnull align 8 dereferenceable(8) %34, i64 noundef %38)
  br i1 %42, label %44, label %43

43:                                               ; preds = %26
  store i32 4, ptr %15, align 4
  br label %74

44:                                               ; preds = %26
  call void @llvm.lifetime.start.p0(i64 4, ptr %17) #12
  %45 = getelementptr inbounds nuw %"struct.faiss::(anonymous namespace)::IVFFlatScanner", ptr %19, i32 0, i32 2
  %46 = load ptr, ptr %45, align 8, !tbaa !130
  %47 = load ptr, ptr %16, align 8, !tbaa !13
  %48 = getelementptr inbounds nuw %"struct.faiss::(anonymous namespace)::IVFFlatScanner", ptr %19, i32 0, i32 1
  %49 = load i64, ptr %48, align 8, !tbaa !116
  %50 = call noundef float @_ZN5faiss18fvec_inner_productEPKfS1_m(ptr noundef %46, ptr noundef %47, i64 noundef %49)
  store float %50, ptr %17, align 4, !tbaa !65
  %51 = load float, ptr %11, align 4, !tbaa !65
  %52 = load float, ptr %17, align 4, !tbaa !65
  %53 = call noundef zeroext i1 @_ZN5faiss4CMinIflE3cmpEff(float noundef %51, float noundef %52)
  br i1 %53, label %54, label %73

54:                                               ; preds = %44
  call void @llvm.lifetime.start.p0(i64 8, ptr %18) #12
  %55 = getelementptr inbounds nuw %"struct.faiss::InvertedListScanner", ptr %19, i32 0, i32 3
  %56 = load i8, ptr %55, align 1, !tbaa !127, !range !46, !noundef !47
  %57 = trunc i8 %56 to i1
  br i1 %57, label %58, label %63

58:                                               ; preds = %54
  %59 = getelementptr inbounds nuw %"struct.faiss::InvertedListScanner", ptr %19, i32 0, i32 1
  %60 = load i64, ptr %59, align 8, !tbaa !126
  %61 = load i64, ptr %14, align 8, !tbaa !9
  %62 = call noundef i64 @_ZN5faiss8lo_buildEmm(i64 noundef %60, i64 noundef %61)
  br label %68

63:                                               ; preds = %54
  %64 = load ptr, ptr %10, align 8, !tbaa !43
  %65 = load i64, ptr %14, align 8, !tbaa !9
  %66 = getelementptr inbounds nuw i64, ptr %64, i64 %65
  %67 = load i64, ptr %66, align 8, !tbaa !9
  br label %68

68:                                               ; preds = %63, %58
  %69 = phi i64 [ %62, %58 ], [ %67, %63 ]
  store i64 %69, ptr %18, align 8, !tbaa !9
  %70 = load ptr, ptr %12, align 8, !tbaa !132
  %71 = load float, ptr %17, align 4, !tbaa !65
  %72 = load i64, ptr %18, align 8, !tbaa !9
  call void @_ZN5faiss16RangeQueryResult3addEfl(ptr noundef nonnull align 8 dereferenceable(24) %70, float noundef %71, i64 noundef %72)
  call void @llvm.lifetime.end.p0(i64 8, ptr %18) #12
  br label %73

73:                                               ; preds = %68, %44
  call void @llvm.lifetime.end.p0(i64 4, ptr %17) #12
  store i32 0, ptr %15, align 4
  br label %74

74:                                               ; preds = %73, %43
  call void @llvm.lifetime.end.p0(i64 8, ptr %16) #12
  %75 = load i32, ptr %15, align 4
  switch i32 %75, label %81 [
    i32 0, label %76
    i32 4, label %77
  ]

76:                                               ; preds = %74
  br label %77

77:                                               ; preds = %76, %74
  %78 = load i64, ptr %14, align 8, !tbaa !9
  %79 = add i64 %78, 1
  store i64 %79, ptr %14, align 8, !tbaa !9
  br label %21, !llvm.loop !134

80:                                               ; preds = %25
  call void @llvm.lifetime.end.p0(i64 8, ptr %13) #12
  ret void

81:                                               ; preds = %74
  unreachable
}